; Function Attrs: mustprogress nofree norecurse nosync nounwind willreturn memory(argmem: read) uwtable
define hidden noundef i32 @_ZNK3sat11npn3_finder7ternary4hashclERKS1_(ptr nocapture noundef nonnull readnone align 1 dereferenceable(1) %this, ptr nocapture noundef nonnull readonly align 8 dereferenceable(24) %t) local_unnamed_addr #6 align 2 {
entry:
  %0 = load i32, ptr %t, align 8
  %y = getelementptr inbounds i8, ptr %t, i64 4
  %1 = load i32, ptr %y, align 4
  %z = getelementptr inbounds i8, ptr %t, i64 8
  %2 = load i32, ptr %z, align 8
  %3 = add i32 %1, %2
  %sub1.i = sub i32 %0, %3
  %shr.i = lshr i32 %2, 13
  %xor.i = xor i32 %sub1.i, %shr.i
  %4 = add i32 %2, %xor.i
  %sub3.i = sub i32 %1, %4
  %shl.i = shl i32 %xor.i, 8
  %xor4.i = xor i32 %sub3.i, %shl.i
  %5 = add i32 %xor.i, %xor4.i
  %sub6.i = sub i32 %2, %5
  %shr7.i = lshr i32 %xor4.i, 13
  %xor8.i = xor i32 %sub6.i, %shr7.i
  %6 = add i32 %xor4.i, %xor8.i
  %sub10.i = sub i32 %xor.i, %6
  %shr11.i = lshr i32 %xor8.i, 12
  %xor12.i = xor i32 %sub10.i, %shr11.i
  %7 = add i32 %xor8.i, %xor12.i
  %sub14.i = sub i32 %xor4.i, %7
  %shl15.i = shl i32 %xor12.i, 16
  %xor16.i = xor i32 %sub14.i, %shl15.i
  %8 = add i32 %xor12.i, %xor16.i
  %sub18.i = sub i32 %xor8.i, %8
  %shr19.i = lshr i32 %xor16.i, 5
  %xor20.i = xor i32 %sub18.i, %shr19.i
  %9 = add i32 %xor16.i, %xor20.i
  %sub22.i = sub i32 %xor12.i, %9
  %shr23.i = lshr i32 %xor20.i, 3
  %xor24.i = xor i32 %sub22.i, %shr23.i
  %10 = add i32 %xor20.i, %xor24.i
  %sub26.i = sub i32 %xor16.i, %10
  %shl27.i = shl i32 %xor24.i, 10
  %xor28.i = xor i32 %sub26.i, %shl27.i
  %11 = add i32 %xor24.i, %xor28.i
  %sub30.i = sub i32 %xor20.i, %11
  %shr31.i = lshr i32 %xor28.i, 15
  %xor32.i = xor i32 %sub30.i, %shr31.i
  ret i32 %xor32.i
}